
_interrupt:

;alarme.c,48 :: 		void interrupt(void)
;alarme.c,50 :: 		if(INTCON.TMR0IF)
	BTFSS       INTCON+0, 2 
	GOTO        L_interrupt0
;alarme.c,52 :: 		INTCON.TMR0IE=0;
	BCF         INTCON+0, 5 
;alarme.c,53 :: 		TMR0H = COUNTER >> 8;  // RE-Load Timer 0 counter - 1st TMR0H
	MOVLW       255
	MOVWF       TMR0H+0 
;alarme.c,54 :: 		TMR0L = COUNTER;       // RE-Load Timer 0 counter - 2nd TMR0L
	MOVLW       245
	MOVWF       TMR0L+0 
;alarme.c,56 :: 		INTCON.TMR0IF=0;
	BCF         INTCON+0, 2 
;alarme.c,57 :: 		INTCON.TMR0IE=1;
	BSF         INTCON+0, 5 
;alarme.c,58 :: 		timer += COUNTER;
	MOVF        _timer+0, 0 
	MOVWF       R0 
	MOVF        _timer+1, 0 
	MOVWF       R1 
	MOVF        _timer+2, 0 
	MOVWF       R2 
	MOVF        _timer+3, 0 
	MOVWF       R3 
	MOVLW       0
	MOVWF       R4 
	MOVLW       245
	MOVWF       R5 
	MOVLW       127
	MOVWF       R6 
	MOVLW       142
	MOVWF       R7 
	CALL        _Add_32x32_FP+0, 0
	MOVF        R0, 0 
	MOVWF       _timer+0 
	MOVF        R1, 0 
	MOVWF       _timer+1 
	MOVF        R2, 0 
	MOVWF       _timer+2 
	MOVF        R3, 0 
	MOVWF       _timer+3 
;alarme.c,59 :: 		}
L_interrupt0:
;alarme.c,61 :: 		if(INTCON.RBIF)
	BTFSS       INTCON+0, 0 
	GOTO        L_interrupt1
;alarme.c,63 :: 		if(edge == 1 && (timer > 0.02))
	MOVF        _edge+0, 0 
	XORLW       1
	BTFSS       STATUS+0, 2 
	GOTO        L_interrupt4
	MOVF        _timer+0, 0 
	MOVWF       R4 
	MOVF        _timer+1, 0 
	MOVWF       R5 
	MOVF        _timer+2, 0 
	MOVWF       R6 
	MOVF        _timer+3, 0 
	MOVWF       R7 
	MOVLW       10
	MOVWF       R0 
	MOVLW       215
	MOVWF       R1 
	MOVLW       35
	MOVWF       R2 
	MOVLW       121
	MOVWF       R3 
	CALL        _Compare_Double+0, 0
	MOVLW       1
	BTFSC       STATUS+0, 0 
	MOVLW       0
	MOVWF       R0 
	MOVF        R0, 1 
	BTFSC       STATUS+0, 2 
	GOTO        L_interrupt4
L__interrupt79:
;alarme.c,65 :: 		keypadHandler();
	CALL        _keypadHandler+0, 0
;alarme.c,66 :: 		timer = 0;
	CLRF        _timer+0 
	CLRF        _timer+1 
	CLRF        _timer+2 
	CLRF        _timer+3 
;alarme.c,67 :: 		}
L_interrupt4:
;alarme.c,69 :: 		edge = !edge;
	MOVF        _edge+0, 1 
	MOVLW       1
	BTFSS       STATUS+0, 2 
	MOVLW       0
	MOVWF       _edge+0 
;alarme.c,70 :: 		INTCON.RBIF = 0;
	BCF         INTCON+0, 0 
;alarme.c,71 :: 		}
L_interrupt1:
;alarme.c,72 :: 		}
L_end_interrupt:
L__interrupt82:
	RETFIE      1
; end of _interrupt

_main:

;alarme.c,74 :: 		void main()
;alarme.c,77 :: 		Lcd_Init();
	CALL        _Lcd_Init+0, 0
;alarme.c,78 :: 		Lcd_Cmd(_LCD_CURSOR_OFF);
	MOVLW       12
	MOVWF       FARG_Lcd_Cmd_out_char+0 
	CALL        _Lcd_Cmd+0, 0
;alarme.c,81 :: 		T0CON.T08BIT = 0;       // 16 bits
	BCF         T0CON+0, 6 
;alarme.c,82 :: 		T0CON.T0CS = 0;         // Internal clock => Crystal/4
	BCF         T0CON+0, 5 
;alarme.c,83 :: 		T0CON.PSA = 0;          // Prescaler ON
	BCF         T0CON+0, 3 
;alarme.c,86 :: 		T0CON.T0PS2 = 1;
	BSF         T0CON+0, 2 
;alarme.c,87 :: 		T0CON.T0PS1 = 1;
	BSF         T0CON+0, 1 
;alarme.c,88 :: 		T0CON.T0PS0 = 1;
	BSF         T0CON+0, 0 
;alarme.c,91 :: 		TMR0H = COUNTER >> 8;  // Load Timer 0 counter - 1st TMR0H
	MOVLW       255
	MOVWF       TMR0H+0 
;alarme.c,92 :: 		TMR0L = COUNTER;       // Load Timer 0 counter - 2nd TMR0L
	MOVLW       245
	MOVWF       TMR0L+0 
;alarme.c,95 :: 		INTCON.TMR0IP = 1;
	BSF         INTCON+0, 2 
;alarme.c,96 :: 		INTCON.TMR0IF=0;
	BCF         INTCON+0, 2 
;alarme.c,97 :: 		INTCON.TMR0IE=1;
	BSF         INTCON+0, 5 
;alarme.c,98 :: 		INTCON.PEIE=0;
	BCF         INTCON+0, 6 
;alarme.c,99 :: 		INTCON.GIE=1;
	BSF         INTCON+0, 7 
;alarme.c,102 :: 		T0CON.TMR0ON=1;
	BSF         T0CON+0, 7 
;alarme.c,105 :: 		ADCON1 = 0x04;
	MOVLW       4
	MOVWF       ADCON1+0 
;alarme.c,109 :: 		TRISA.RA5 = 1;
	BSF         TRISA+0, 5 
;alarme.c,110 :: 		TRISC.RC5 = 1;
	BSF         TRISC+0, 5 
;alarme.c,111 :: 		TRISC.RC6 = 1;
	BSF         TRISC+0, 6 
;alarme.c,112 :: 		TRISC.RC7 = 1;
	BSF         TRISC+0, 7 
;alarme.c,114 :: 		TRISA.RA0 = 1;
	BSF         TRISA+0, 0 
;alarme.c,115 :: 		TRISA.RA1 = 1;
	BSF         TRISA+0, 1 
;alarme.c,118 :: 		INTCON.GIE = 1;
	BSF         INTCON+0, 7 
;alarme.c,119 :: 		INTCON.RBIE = 1;
	BSF         INTCON+0, 3 
;alarme.c,120 :: 		INTCON.RBIF = 0;
	BCF         INTCON+0, 0 
;alarme.c,124 :: 		TRISB.RB4 = 1;
	BSF         TRISB+0, 4 
;alarme.c,125 :: 		TRISB.RB5 = 1;
	BSF         TRISB+0, 5 
;alarme.c,126 :: 		TRISB.RB6 = 1;
	BSF         TRISB+0, 6 
;alarme.c,127 :: 		TRISB.RB7 = 1;
	BSF         TRISB+0, 7 
;alarme.c,131 :: 		TRISB.RB0 = 0;
	BCF         TRISB+0, 0 
;alarme.c,132 :: 		TRISB.RB1 = 0;
	BCF         TRISB+0, 1 
;alarme.c,133 :: 		TRISB.RB2 = 0;
	BCF         TRISB+0, 2 
;alarme.c,134 :: 		TRISB.RB3 = 0;
	BCF         TRISB+0, 3 
;alarme.c,136 :: 		PORTB.RB0 = 0;
	BCF         PORTB+0, 0 
;alarme.c,137 :: 		PORTB.RB1 = 0;
	BCF         PORTB+0, 1 
;alarme.c,138 :: 		PORTB.RB2 = 0;
	BCF         PORTB+0, 2 
;alarme.c,139 :: 		PORTB.RB3 = 0;
	BCF         PORTB+0, 3 
;alarme.c,142 :: 		TRISC.RC0 = 0;
	BCF         TRISC+0, 0 
;alarme.c,143 :: 		TRISC.RC1 = 0;
	BCF         TRISC+0, 1 
;alarme.c,144 :: 		TRISC.RC2 = 0;
	BCF         TRISC+0, 2 
;alarme.c,145 :: 		TRISC.RC3 = 0;
	BCF         TRISC+0, 3 
;alarme.c,147 :: 		PORTC.RC0 = 0;
	BCF         PORTC+0, 0 
;alarme.c,148 :: 		PORTC.RC1 = 0;
	BCF         PORTC+0, 1 
;alarme.c,149 :: 		PORTC.RC2 = 0;
	BCF         PORTC+0, 2 
;alarme.c,150 :: 		PORTC.RC3 = 0;
	BCF         PORTC+0, 3 
;alarme.c,152 :: 		while(1)
L_main5:
;alarme.c,154 :: 		float vSensor1 = (ADC_read(0)/1023) * 5;
	CLRF        FARG_ADC_Read_channel+0 
	CALL        _ADC_Read+0, 0
	MOVLW       255
	MOVWF       R4 
	MOVLW       3
	MOVWF       R5 
	CALL        _Div_16X16_U+0, 0
	MOVLW       5
	MOVWF       R4 
	MOVLW       0
	MOVWF       R5 
	CALL        _Mul_16X16_U+0, 0
	CALL        _word2double+0, 0
	MOVF        R0, 0 
	MOVWF       main_vSensor1_L1+0 
	MOVF        R1, 0 
	MOVWF       main_vSensor1_L1+1 
	MOVF        R2, 0 
	MOVWF       main_vSensor1_L1+2 
	MOVF        R3, 0 
	MOVWF       main_vSensor1_L1+3 
;alarme.c,155 :: 		float vSensor2 = (ADC_read(1)/1023) * 5;
	MOVLW       1
	MOVWF       FARG_ADC_Read_channel+0 
	CALL        _ADC_Read+0, 0
	MOVLW       255
	MOVWF       R4 
	MOVLW       3
	MOVWF       R5 
	CALL        _Div_16X16_U+0, 0
	MOVLW       5
	MOVWF       R4 
	MOVLW       0
	MOVWF       R5 
	CALL        _Mul_16X16_U+0, 0
	CALL        _word2double+0, 0
	MOVF        R0, 0 
	MOVWF       main_vSensor2_L1+0 
	MOVF        R1, 0 
	MOVWF       main_vSensor2_L1+1 
	MOVF        R2, 0 
	MOVWF       main_vSensor2_L1+2 
	MOVF        R3, 0 
	MOVWF       main_vSensor2_L1+3 
;alarme.c,157 :: 		Delay_ms(100);
	MOVLW       2
	MOVWF       R11, 0
	MOVLW       4
	MOVWF       R12, 0
	MOVLW       186
	MOVWF       R13, 0
L_main7:
	DECFSZ      R13, 1, 1
	BRA         L_main7
	DECFSZ      R12, 1, 1
	BRA         L_main7
	DECFSZ      R11, 1, 1
	BRA         L_main7
	NOP
;alarme.c,158 :: 		Lcd_Cmd(_LCD_CLEAR);
	MOVLW       1
	MOVWF       FARG_Lcd_Cmd_out_char+0 
	CALL        _Lcd_Cmd+0, 0
;alarme.c,159 :: 		if(isOn)
	MOVF        _isOn+0, 1 
	BTFSC       STATUS+0, 2 
	GOTO        L_main8
;alarme.c,161 :: 		char activated = 0;
;alarme.c,162 :: 		int sensorCount = 0;
	CLRF        main_sensorCount_L2+0 
	CLRF        main_sensorCount_L2+1 
;alarme.c,164 :: 		PORTC.RC0 = PORTA.RA5;
	BTFSC       PORTA+0, 5 
	GOTO        L__main84
	BCF         PORTC+0, 0 
	GOTO        L__main85
L__main84:
	BSF         PORTC+0, 0 
L__main85:
;alarme.c,165 :: 		PORTC.RC1 = PORTC.RC5;
	BTFSC       PORTC+0, 5 
	GOTO        L__main86
	BCF         PORTC+0, 1 
	GOTO        L__main87
L__main86:
	BSF         PORTC+0, 1 
L__main87:
;alarme.c,166 :: 		PORTC.RC2 = PORTC.RC6;
	BTFSC       PORTC+0, 6 
	GOTO        L__main88
	BCF         PORTC+0, 2 
	GOTO        L__main89
L__main88:
	BSF         PORTC+0, 2 
L__main89:
;alarme.c,167 :: 		PORTC.RC3 = PORTC.RC7;
	BTFSC       PORTC+0, 7 
	GOTO        L__main90
	BCF         PORTC+0, 3 
	GOTO        L__main91
L__main90:
	BSF         PORTC+0, 3 
L__main91:
;alarme.c,169 :: 		sensorCount += PORTA.RA5;
	CLRF        R0 
	BTFSC       PORTA+0, 5 
	INCF        R0, 1 
	MOVF        R0, 0 
	ADDWF       main_sensorCount_L2+0, 1 
	MOVLW       0
	ADDWFC      main_sensorCount_L2+1, 1 
;alarme.c,170 :: 		sensorCount += PORTC.RC5;
	CLRF        R0 
	BTFSC       PORTC+0, 5 
	INCF        R0, 1 
	MOVF        R0, 0 
	ADDWF       main_sensorCount_L2+0, 1 
	MOVLW       0
	ADDWFC      main_sensorCount_L2+1, 1 
;alarme.c,171 :: 		sensorCount += PORTC.RC6;
	CLRF        R0 
	BTFSC       PORTC+0, 6 
	INCF        R0, 1 
	MOVF        R0, 0 
	ADDWF       main_sensorCount_L2+0, 1 
	MOVLW       0
	ADDWFC      main_sensorCount_L2+1, 1 
;alarme.c,172 :: 		sensorCount += PORTC.RC7;
	CLRF        R0 
	BTFSC       PORTC+0, 7 
	INCF        R0, 1 
	MOVF        R0, 0 
	ADDWF       main_sensorCount_L2+0, 1 
	MOVLW       0
	ADDWFC      main_sensorCount_L2+1, 1 
;alarme.c,173 :: 		sensorCount += vSensor1 >= 4 ? 1 : 0;
	MOVLW       0
	MOVWF       R4 
	MOVLW       0
	MOVWF       R5 
	MOVLW       0
	MOVWF       R6 
	MOVLW       129
	MOVWF       R7 
	MOVF        main_vSensor1_L1+0, 0 
	MOVWF       R0 
	MOVF        main_vSensor1_L1+1, 0 
	MOVWF       R1 
	MOVF        main_vSensor1_L1+2, 0 
	MOVWF       R2 
	MOVF        main_vSensor1_L1+3, 0 
	MOVWF       R3 
	CALL        _Compare_Double+0, 0
	MOVLW       0
	BTFSC       STATUS+0, 0 
	MOVLW       1
	MOVWF       R0 
	MOVF        R0, 1 
	BTFSC       STATUS+0, 2 
	GOTO        L_main9
	MOVLW       1
	MOVWF       ?FLOC___mainT128+0 
	GOTO        L_main10
L_main9:
	CLRF        ?FLOC___mainT128+0 
L_main10:
	MOVF        ?FLOC___mainT128+0, 0 
	ADDWF       main_sensorCount_L2+0, 1 
	MOVLW       0
	BTFSC       ?FLOC___mainT128+0, 7 
	MOVLW       255
	ADDWFC      main_sensorCount_L2+1, 1 
;alarme.c,174 :: 		sensorCount += vSensor2 > 3 ? 1 : 0;
	MOVF        main_vSensor2_L1+0, 0 
	MOVWF       R4 
	MOVF        main_vSensor2_L1+1, 0 
	MOVWF       R5 
	MOVF        main_vSensor2_L1+2, 0 
	MOVWF       R6 
	MOVF        main_vSensor2_L1+3, 0 
	MOVWF       R7 
	MOVLW       0
	MOVWF       R0 
	MOVLW       0
	MOVWF       R1 
	MOVLW       64
	MOVWF       R2 
	MOVLW       128
	MOVWF       R3 
	CALL        _Compare_Double+0, 0
	MOVLW       1
	BTFSC       STATUS+0, 0 
	MOVLW       0
	MOVWF       R0 
	MOVF        R0, 1 
	BTFSC       STATUS+0, 2 
	GOTO        L_main11
	MOVLW       1
	MOVWF       ?FLOC___mainT131+0 
	GOTO        L_main12
L_main11:
	CLRF        ?FLOC___mainT131+0 
L_main12:
	MOVF        ?FLOC___mainT131+0, 0 
	ADDWF       main_sensorCount_L2+0, 0 
	MOVWF       R1 
	MOVLW       0
	BTFSC       ?FLOC___mainT131+0, 7 
	MOVLW       255
	ADDWFC      main_sensorCount_L2+1, 0 
	MOVWF       R2 
	MOVF        R1, 0 
	MOVWF       main_sensorCount_L2+0 
	MOVF        R2, 0 
	MOVWF       main_sensorCount_L2+1 
;alarme.c,176 :: 		activated = sensorCount >= 2 ? 1 : 0;
	MOVLW       128
	XORWF       R2, 0 
	MOVWF       R0 
	MOVLW       128
	SUBWF       R0, 0 
	BTFSS       STATUS+0, 2 
	GOTO        L__main92
	MOVLW       2
	SUBWF       R1, 0 
L__main92:
	BTFSS       STATUS+0, 0 
	GOTO        L_main13
	MOVLW       1
	MOVWF       ?FLOC___mainT134+0 
	GOTO        L_main14
L_main13:
	CLRF        ?FLOC___mainT134+0 
L_main14:
;alarme.c,178 :: 		if(activated)
	MOVF        ?FLOC___mainT134+0, 1 
	BTFSC       STATUS+0, 2 
	GOTO        L_main15
;alarme.c,182 :: 		IntToStr(sensorCount, number);
	MOVF        main_sensorCount_L2+0, 0 
	MOVWF       FARG_IntToStr_input+0 
	MOVF        main_sensorCount_L2+1, 0 
	MOVWF       FARG_IntToStr_input+1 
	MOVLW       main_number_L3+0
	MOVWF       FARG_IntToStr_output+0 
	MOVLW       hi_addr(main_number_L3+0)
	MOVWF       FARG_IntToStr_output+1 
	CALL        _IntToStr+0, 0
;alarme.c,184 :: 		strcat(str, msg1);
	MOVLW       main_str_L3+0
	MOVWF       FARG_strcat_to+0 
	MOVLW       hi_addr(main_str_L3+0)
	MOVWF       FARG_strcat_to+1 
	MOVLW       _msg1+0
	MOVWF       FARG_strcat_from+0 
	MOVLW       hi_addr(_msg1+0)
	MOVWF       FARG_strcat_from+1 
	CALL        _strcat+0, 0
;alarme.c,185 :: 		strcat(str, number);
	MOVLW       main_str_L3+0
	MOVWF       FARG_strcat_to+0 
	MOVLW       hi_addr(main_str_L3+0)
	MOVWF       FARG_strcat_to+1 
	MOVLW       main_number_L3+0
	MOVWF       FARG_strcat_from+0 
	MOVLW       hi_addr(main_number_L3+0)
	MOVWF       FARG_strcat_from+1 
	CALL        _strcat+0, 0
;alarme.c,186 :: 		strcat(str, msg2);
	MOVLW       main_str_L3+0
	MOVWF       FARG_strcat_to+0 
	MOVLW       hi_addr(main_str_L3+0)
	MOVWF       FARG_strcat_to+1 
	MOVLW       _msg2+0
	MOVWF       FARG_strcat_from+0 
	MOVLW       hi_addr(_msg2+0)
	MOVWF       FARG_strcat_from+1 
	CALL        _strcat+0, 0
;alarme.c,188 :: 		Lcd_Out(1,1,str);
	MOVLW       1
	MOVWF       FARG_Lcd_Out_row+0 
	MOVLW       1
	MOVWF       FARG_Lcd_Out_column+0 
	MOVLW       main_str_L3+0
	MOVWF       FARG_Lcd_Out_text+0 
	MOVLW       hi_addr(main_str_L3+0)
	MOVWF       FARG_Lcd_Out_text+1 
	CALL        _Lcd_Out+0, 0
;alarme.c,189 :: 		}
	GOTO        L_main16
L_main15:
;alarme.c,195 :: 		if(PORTA.RA5)
	BTFSS       PORTA+0, 5 
	GOTO        L_main17
;alarme.c,196 :: 		strcpy(number, "1");
	MOVLW       main_number_L3_L3+0
	MOVWF       FARG_strcpy_to+0 
	MOVLW       hi_addr(main_number_L3_L3+0)
	MOVWF       FARG_strcpy_to+1 
	MOVLW       ?lstr1_alarme+0
	MOVWF       FARG_strcpy_from+0 
	MOVLW       hi_addr(?lstr1_alarme+0)
	MOVWF       FARG_strcpy_from+1 
	CALL        _strcpy+0, 0
L_main17:
;alarme.c,198 :: 		if(PORTC.RC5)
	BTFSS       PORTC+0, 5 
	GOTO        L_main18
;alarme.c,199 :: 		strcpy(number, "2");
	MOVLW       main_number_L3_L3+0
	MOVWF       FARG_strcpy_to+0 
	MOVLW       hi_addr(main_number_L3_L3+0)
	MOVWF       FARG_strcpy_to+1 
	MOVLW       ?lstr2_alarme+0
	MOVWF       FARG_strcpy_from+0 
	MOVLW       hi_addr(?lstr2_alarme+0)
	MOVWF       FARG_strcpy_from+1 
	CALL        _strcpy+0, 0
L_main18:
;alarme.c,201 :: 		if(PORTC.RC6)
	BTFSS       PORTC+0, 6 
	GOTO        L_main19
;alarme.c,202 :: 		strcpy(number, "3");
	MOVLW       main_number_L3_L3+0
	MOVWF       FARG_strcpy_to+0 
	MOVLW       hi_addr(main_number_L3_L3+0)
	MOVWF       FARG_strcpy_to+1 
	MOVLW       ?lstr3_alarme+0
	MOVWF       FARG_strcpy_from+0 
	MOVLW       hi_addr(?lstr3_alarme+0)
	MOVWF       FARG_strcpy_from+1 
	CALL        _strcpy+0, 0
L_main19:
;alarme.c,204 :: 		if(PORTC.RC7)
	BTFSS       PORTC+0, 7 
	GOTO        L_main20
;alarme.c,205 :: 		strcpy(number, "4");
	MOVLW       main_number_L3_L3+0
	MOVWF       FARG_strcpy_to+0 
	MOVLW       hi_addr(main_number_L3_L3+0)
	MOVWF       FARG_strcpy_to+1 
	MOVLW       ?lstr4_alarme+0
	MOVWF       FARG_strcpy_from+0 
	MOVLW       hi_addr(?lstr4_alarme+0)
	MOVWF       FARG_strcpy_from+1 
	CALL        _strcpy+0, 0
L_main20:
;alarme.c,207 :: 		if(vSensor1 >= 4)
	MOVLW       0
	MOVWF       R4 
	MOVLW       0
	MOVWF       R5 
	MOVLW       0
	MOVWF       R6 
	MOVLW       129
	MOVWF       R7 
	MOVF        main_vSensor1_L1+0, 0 
	MOVWF       R0 
	MOVF        main_vSensor1_L1+1, 0 
	MOVWF       R1 
	MOVF        main_vSensor1_L1+2, 0 
	MOVWF       R2 
	MOVF        main_vSensor1_L1+3, 0 
	MOVWF       R3 
	CALL        _Compare_Double+0, 0
	MOVLW       0
	BTFSC       STATUS+0, 0 
	MOVLW       1
	MOVWF       R0 
	MOVF        R0, 1 
	BTFSC       STATUS+0, 2 
	GOTO        L_main21
;alarme.c,208 :: 		strcpy(number, "5");
	MOVLW       main_number_L3_L3+0
	MOVWF       FARG_strcpy_to+0 
	MOVLW       hi_addr(main_number_L3_L3+0)
	MOVWF       FARG_strcpy_to+1 
	MOVLW       ?lstr5_alarme+0
	MOVWF       FARG_strcpy_from+0 
	MOVLW       hi_addr(?lstr5_alarme+0)
	MOVWF       FARG_strcpy_from+1 
	CALL        _strcpy+0, 0
L_main21:
;alarme.c,210 :: 		if(vSensor2 > 3)
	MOVF        main_vSensor2_L1+0, 0 
	MOVWF       R4 
	MOVF        main_vSensor2_L1+1, 0 
	MOVWF       R5 
	MOVF        main_vSensor2_L1+2, 0 
	MOVWF       R6 
	MOVF        main_vSensor2_L1+3, 0 
	MOVWF       R7 
	MOVLW       0
	MOVWF       R0 
	MOVLW       0
	MOVWF       R1 
	MOVLW       64
	MOVWF       R2 
	MOVLW       128
	MOVWF       R3 
	CALL        _Compare_Double+0, 0
	MOVLW       1
	BTFSC       STATUS+0, 0 
	MOVLW       0
	MOVWF       R0 
	MOVF        R0, 1 
	BTFSC       STATUS+0, 2 
	GOTO        L_main22
;alarme.c,211 :: 		strcpy(number, "6");
	MOVLW       main_number_L3_L3+0
	MOVWF       FARG_strcpy_to+0 
	MOVLW       hi_addr(main_number_L3_L3+0)
	MOVWF       FARG_strcpy_to+1 
	MOVLW       ?lstr6_alarme+0
	MOVWF       FARG_strcpy_from+0 
	MOVLW       hi_addr(?lstr6_alarme+0)
	MOVWF       FARG_strcpy_from+1 
	CALL        _strcpy+0, 0
L_main22:
;alarme.c,213 :: 		strcat(str, msg3);
	MOVLW       main_str_L3_L3+0
	MOVWF       FARG_strcat_to+0 
	MOVLW       hi_addr(main_str_L3_L3+0)
	MOVWF       FARG_strcat_to+1 
	MOVLW       _msg3+0
	MOVWF       FARG_strcat_from+0 
	MOVLW       hi_addr(_msg3+0)
	MOVWF       FARG_strcat_from+1 
	CALL        _strcat+0, 0
;alarme.c,214 :: 		strcat(str, number);
	MOVLW       main_str_L3_L3+0
	MOVWF       FARG_strcat_to+0 
	MOVLW       hi_addr(main_str_L3_L3+0)
	MOVWF       FARG_strcat_to+1 
	MOVLW       main_number_L3_L3+0
	MOVWF       FARG_strcat_from+0 
	MOVLW       hi_addr(main_number_L3_L3+0)
	MOVWF       FARG_strcat_from+1 
	CALL        _strcat+0, 0
;alarme.c,215 :: 		strcat(str, msg4);
	MOVLW       main_str_L3_L3+0
	MOVWF       FARG_strcat_to+0 
	MOVLW       hi_addr(main_str_L3_L3+0)
	MOVWF       FARG_strcat_to+1 
	MOVLW       _msg4+0
	MOVWF       FARG_strcat_from+0 
	MOVLW       hi_addr(_msg4+0)
	MOVWF       FARG_strcat_from+1 
	CALL        _strcat+0, 0
;alarme.c,217 :: 		Lcd_Out(1,1,str);
	MOVLW       1
	MOVWF       FARG_Lcd_Out_row+0 
	MOVLW       1
	MOVWF       FARG_Lcd_Out_column+0 
	MOVLW       main_str_L3_L3+0
	MOVWF       FARG_Lcd_Out_text+0 
	MOVLW       hi_addr(main_str_L3_L3+0)
	MOVWF       FARG_Lcd_Out_text+1 
	CALL        _Lcd_Out+0, 0
;alarme.c,218 :: 		}
L_main16:
;alarme.c,219 :: 		}
	GOTO        L_main23
L_main8:
;alarme.c,227 :: 		IntToStr(vSensor1, str1);
	MOVF        main_vSensor1_L1+0, 0 
	MOVWF       R0 
	MOVF        main_vSensor1_L1+1, 0 
	MOVWF       R1 
	MOVF        main_vSensor1_L1+2, 0 
	MOVWF       R2 
	MOVF        main_vSensor1_L1+3, 0 
	MOVWF       R3 
	CALL        _double2int+0, 0
	MOVF        R0, 0 
	MOVWF       FARG_IntToStr_input+0 
	MOVF        R1, 0 
	MOVWF       FARG_IntToStr_input+1 
	MOVLW       main_str1_L2+0
	MOVWF       FARG_IntToStr_output+0 
	MOVLW       hi_addr(main_str1_L2+0)
	MOVWF       FARG_IntToStr_output+1 
	CALL        _IntToStr+0, 0
;alarme.c,228 :: 		IntToStr(vSensor2, str2);
	MOVF        main_vSensor2_L1+0, 0 
	MOVWF       R0 
	MOVF        main_vSensor2_L1+1, 0 
	MOVWF       R1 
	MOVF        main_vSensor2_L1+2, 0 
	MOVWF       R2 
	MOVF        main_vSensor2_L1+3, 0 
	MOVWF       R3 
	CALL        _double2int+0, 0
	MOVF        R0, 0 
	MOVWF       FARG_IntToStr_input+0 
	MOVF        R1, 0 
	MOVWF       FARG_IntToStr_input+1 
	MOVLW       main_str2_L2+0
	MOVWF       FARG_IntToStr_output+0 
	MOVLW       hi_addr(main_str2_L2+0)
	MOVWF       FARG_IntToStr_output+1 
	CALL        _IntToStr+0, 0
;alarme.c,230 :: 		strcat(str, str1);
	MOVLW       main_str_L2+0
	MOVWF       FARG_strcat_to+0 
	MOVLW       hi_addr(main_str_L2+0)
	MOVWF       FARG_strcat_to+1 
	MOVLW       main_str1_L2+0
	MOVWF       FARG_strcat_from+0 
	MOVLW       hi_addr(main_str1_L2+0)
	MOVWF       FARG_strcat_from+1 
	CALL        _strcat+0, 0
;alarme.c,231 :: 		strcat(str, "V ");
	MOVLW       main_str_L2+0
	MOVWF       FARG_strcat_to+0 
	MOVLW       hi_addr(main_str_L2+0)
	MOVWF       FARG_strcat_to+1 
	MOVLW       ?lstr7_alarme+0
	MOVWF       FARG_strcat_from+0 
	MOVLW       hi_addr(?lstr7_alarme+0)
	MOVWF       FARG_strcat_from+1 
	CALL        _strcat+0, 0
;alarme.c,232 :: 		strcat(str, str2);
	MOVLW       main_str_L2+0
	MOVWF       FARG_strcat_to+0 
	MOVLW       hi_addr(main_str_L2+0)
	MOVWF       FARG_strcat_to+1 
	MOVLW       main_str2_L2+0
	MOVWF       FARG_strcat_from+0 
	MOVLW       hi_addr(main_str2_L2+0)
	MOVWF       FARG_strcat_from+1 
	CALL        _strcat+0, 0
;alarme.c,233 :: 		strcat(str, "V");
	MOVLW       main_str_L2+0
	MOVWF       FARG_strcat_to+0 
	MOVLW       hi_addr(main_str_L2+0)
	MOVWF       FARG_strcat_to+1 
	MOVLW       ?lstr8_alarme+0
	MOVWF       FARG_strcat_from+0 
	MOVLW       hi_addr(?lstr8_alarme+0)
	MOVWF       FARG_strcat_from+1 
	CALL        _strcat+0, 0
;alarme.c,235 :: 		Lcd_Out(1,1,str);
	MOVLW       1
	MOVWF       FARG_Lcd_Out_row+0 
	MOVLW       1
	MOVWF       FARG_Lcd_Out_column+0 
	MOVLW       main_str_L2+0
	MOVWF       FARG_Lcd_Out_text+0 
	MOVLW       hi_addr(main_str_L2+0)
	MOVWF       FARG_Lcd_Out_text+1 
	CALL        _Lcd_Out+0, 0
;alarme.c,236 :: 		}
L_main23:
;alarme.c,237 :: 		}
	GOTO        L_main5
;alarme.c,238 :: 		}
L_end_main:
	GOTO        $+0
; end of _main

_keypadHandler:

;alarme.c,240 :: 		void keypadHandler()
;alarme.c,247 :: 		for(i = 0, columnCode = 0x0f; (i < 4) && (columnCode==0x0f); i++)
	CLRF        keypadHandler_i_L0+0 
	MOVLW       15
	MOVWF       _columnCode+0 
L_keypadHandler24:
	MOVLW       4
	SUBWF       keypadHandler_i_L0+0, 0 
	BTFSC       STATUS+0, 0 
	GOTO        L_keypadHandler25
	MOVF        _columnCode+0, 0 
	XORLW       15
	BTFSS       STATUS+0, 2 
	GOTO        L_keypadHandler25
L__keypadHandler80:
;alarme.c,249 :: 		PORTB.RB0 = 1; // digital output
	BSF         PORTB+0, 0 
;alarme.c,250 :: 		PORTB.RB1 = 1;
	BSF         PORTB+0, 1 
;alarme.c,251 :: 		PORTB.RB2 = 1;
	BSF         PORTB+0, 2 
;alarme.c,252 :: 		PORTB.RB3 = 1;
	BSF         PORTB+0, 3 
;alarme.c,253 :: 		if(i==0)PORTB.RB0 = 0; // digital output
	MOVF        keypadHandler_i_L0+0, 0 
	XORLW       0
	BTFSS       STATUS+0, 2 
	GOTO        L_keypadHandler29
	BCF         PORTB+0, 0 
L_keypadHandler29:
;alarme.c,254 :: 		if(i==1)PORTB.RB1 = 0;
	MOVF        keypadHandler_i_L0+0, 0 
	XORLW       1
	BTFSS       STATUS+0, 2 
	GOTO        L_keypadHandler30
	BCF         PORTB+0, 1 
L_keypadHandler30:
;alarme.c,255 :: 		if(i==2)PORTB.RB2 = 0;
	MOVF        keypadHandler_i_L0+0, 0 
	XORLW       2
	BTFSS       STATUS+0, 2 
	GOTO        L_keypadHandler31
	BCF         PORTB+0, 2 
L_keypadHandler31:
;alarme.c,256 :: 		if(i==3)PORTB.RB3 = 0;
	MOVF        keypadHandler_i_L0+0, 0 
	XORLW       3
	BTFSS       STATUS+0, 2 
	GOTO        L_keypadHandler32
	BCF         PORTB+0, 3 
L_keypadHandler32:
;alarme.c,257 :: 		columnCode = PORTB >> 4;
	MOVF        PORTB+0, 0 
	MOVWF       R0 
	RRCF        R0, 1 
	BCF         R0, 7 
	RRCF        R0, 1 
	BCF         R0, 7 
	RRCF        R0, 1 
	BCF         R0, 7 
	RRCF        R0, 1 
	BCF         R0, 7 
	MOVF        R0, 0 
	MOVWF       _columnCode+0 
;alarme.c,247 :: 		for(i = 0, columnCode = 0x0f; (i < 4) && (columnCode==0x0f); i++)
	INCF        keypadHandler_i_L0+0, 1 
;alarme.c,258 :: 		}
	GOTO        L_keypadHandler24
L_keypadHandler25:
;alarme.c,259 :: 		result = keyHandler(PORTB, &type);
	MOVF        PORTB+0, 0 
	MOVWF       FARG_keyHandler_key+0 
	MOVLW       0
	MOVWF       FARG_keyHandler_key+1 
	MOVLW       keypadHandler_type_L0+0
	MOVWF       FARG_keyHandler_type+0 
	MOVLW       hi_addr(keypadHandler_type_L0+0)
	MOVWF       FARG_keyHandler_type+1 
	CALL        _keyHandler+0, 0
	MOVF        R0, 0 
	MOVWF       keypadHandler_result_L0+0 
	MOVF        R1, 0 
	MOVWF       keypadHandler_result_L0+1 
;alarme.c,260 :: 		PORTB.RB0 = 0; // digital output
	BCF         PORTB+0, 0 
;alarme.c,261 :: 		PORTB.RB1 = 0;
	BCF         PORTB+0, 1 
;alarme.c,262 :: 		PORTB.RB2 = 0;
	BCF         PORTB+0, 2 
;alarme.c,263 :: 		PORTB.RB3 = 0;
	BCF         PORTB+0, 3 
;alarme.c,265 :: 		if(edge == 1)
	MOVF        _edge+0, 0 
	XORLW       1
	BTFSS       STATUS+0, 2 
	GOTO        L_keypadHandler33
;alarme.c,267 :: 		if(type == NUM)
	MOVF        keypadHandler_type_L0+0, 0 
	XORLW       6
	BTFSS       STATUS+0, 2 
	GOTO        L_keypadHandler34
;alarme.c,269 :: 		if(result == 0)
	MOVLW       0
	XORWF       keypadHandler_result_L0+1, 0 
	BTFSS       STATUS+0, 2 
	GOTO        L__keypadHandler94
	MOVLW       0
	XORWF       keypadHandler_result_L0+0, 0 
L__keypadHandler94:
	BTFSS       STATUS+0, 2 
	GOTO        L_keypadHandler35
;alarme.c,270 :: 		nKeyPressed = "0";
	MOVLW       ?lstr_9_alarme+0
	MOVWF       _nKeyPressed+0 
L_keypadHandler35:
;alarme.c,272 :: 		if(result == 1)
	MOVLW       0
	XORWF       keypadHandler_result_L0+1, 0 
	BTFSS       STATUS+0, 2 
	GOTO        L__keypadHandler95
	MOVLW       1
	XORWF       keypadHandler_result_L0+0, 0 
L__keypadHandler95:
	BTFSS       STATUS+0, 2 
	GOTO        L_keypadHandler36
;alarme.c,273 :: 		nKeyPressed = "1";
	MOVLW       ?lstr_10_alarme+0
	MOVWF       _nKeyPressed+0 
L_keypadHandler36:
;alarme.c,275 :: 		if(result == 2)
	MOVLW       0
	XORWF       keypadHandler_result_L0+1, 0 
	BTFSS       STATUS+0, 2 
	GOTO        L__keypadHandler96
	MOVLW       2
	XORWF       keypadHandler_result_L0+0, 0 
L__keypadHandler96:
	BTFSS       STATUS+0, 2 
	GOTO        L_keypadHandler37
;alarme.c,276 :: 		nKeyPressed = "2";
	MOVLW       ?lstr_11_alarme+0
	MOVWF       _nKeyPressed+0 
L_keypadHandler37:
;alarme.c,278 :: 		if(result == 3)
	MOVLW       0
	XORWF       keypadHandler_result_L0+1, 0 
	BTFSS       STATUS+0, 2 
	GOTO        L__keypadHandler97
	MOVLW       3
	XORWF       keypadHandler_result_L0+0, 0 
L__keypadHandler97:
	BTFSS       STATUS+0, 2 
	GOTO        L_keypadHandler38
;alarme.c,279 :: 		nKeyPressed = "3";
	MOVLW       ?lstr_12_alarme+0
	MOVWF       _nKeyPressed+0 
L_keypadHandler38:
;alarme.c,281 :: 		if(result == 4)
	MOVLW       0
	XORWF       keypadHandler_result_L0+1, 0 
	BTFSS       STATUS+0, 2 
	GOTO        L__keypadHandler98
	MOVLW       4
	XORWF       keypadHandler_result_L0+0, 0 
L__keypadHandler98:
	BTFSS       STATUS+0, 2 
	GOTO        L_keypadHandler39
;alarme.c,282 :: 		nKeyPressed = "4";
	MOVLW       ?lstr_13_alarme+0
	MOVWF       _nKeyPressed+0 
L_keypadHandler39:
;alarme.c,284 :: 		if(result == 5)
	MOVLW       0
	XORWF       keypadHandler_result_L0+1, 0 
	BTFSS       STATUS+0, 2 
	GOTO        L__keypadHandler99
	MOVLW       5
	XORWF       keypadHandler_result_L0+0, 0 
L__keypadHandler99:
	BTFSS       STATUS+0, 2 
	GOTO        L_keypadHandler40
;alarme.c,285 :: 		nKeyPressed = "5";
	MOVLW       ?lstr_14_alarme+0
	MOVWF       _nKeyPressed+0 
L_keypadHandler40:
;alarme.c,287 :: 		if(result == 6)
	MOVLW       0
	XORWF       keypadHandler_result_L0+1, 0 
	BTFSS       STATUS+0, 2 
	GOTO        L__keypadHandler100
	MOVLW       6
	XORWF       keypadHandler_result_L0+0, 0 
L__keypadHandler100:
	BTFSS       STATUS+0, 2 
	GOTO        L_keypadHandler41
;alarme.c,288 :: 		nKeyPressed = "6";
	MOVLW       ?lstr_15_alarme+0
	MOVWF       _nKeyPressed+0 
L_keypadHandler41:
;alarme.c,290 :: 		if(result == 7)
	MOVLW       0
	XORWF       keypadHandler_result_L0+1, 0 
	BTFSS       STATUS+0, 2 
	GOTO        L__keypadHandler101
	MOVLW       7
	XORWF       keypadHandler_result_L0+0, 0 
L__keypadHandler101:
	BTFSS       STATUS+0, 2 
	GOTO        L_keypadHandler42
;alarme.c,291 :: 		nKeyPressed = "7";
	MOVLW       ?lstr_16_alarme+0
	MOVWF       _nKeyPressed+0 
L_keypadHandler42:
;alarme.c,293 :: 		if(result == 8)
	MOVLW       0
	XORWF       keypadHandler_result_L0+1, 0 
	BTFSS       STATUS+0, 2 
	GOTO        L__keypadHandler102
	MOVLW       8
	XORWF       keypadHandler_result_L0+0, 0 
L__keypadHandler102:
	BTFSS       STATUS+0, 2 
	GOTO        L_keypadHandler43
;alarme.c,294 :: 		nKeyPressed = "8";
	MOVLW       ?lstr_17_alarme+0
	MOVWF       _nKeyPressed+0 
L_keypadHandler43:
;alarme.c,296 :: 		if(result == 9)
	MOVLW       0
	XORWF       keypadHandler_result_L0+1, 0 
	BTFSS       STATUS+0, 2 
	GOTO        L__keypadHandler103
	MOVLW       9
	XORWF       keypadHandler_result_L0+0, 0 
L__keypadHandler103:
	BTFSS       STATUS+0, 2 
	GOTO        L_keypadHandler44
;alarme.c,297 :: 		nKeyPressed = "9";
	MOVLW       ?lstr_18_alarme+0
	MOVWF       _nKeyPressed+0 
L_keypadHandler44:
;alarme.c,298 :: 		}
L_keypadHandler34:
;alarme.c,300 :: 		if(type == SUM)
	MOVF        keypadHandler_type_L0+0, 0 
	XORLW       1
	BTFSS       STATUS+0, 2 
	GOTO        L_keypadHandler45
;alarme.c,301 :: 		nKeyPressed = "+";
	MOVLW       ?lstr_19_alarme+0
	MOVWF       _nKeyPressed+0 
L_keypadHandler45:
;alarme.c,303 :: 		if(type == SUB)
	MOVF        keypadHandler_type_L0+0, 0 
	XORLW       2
	BTFSS       STATUS+0, 2 
	GOTO        L_keypadHandler46
;alarme.c,304 :: 		nKeyPressed = "-";
	MOVLW       ?lstr_20_alarme+0
	MOVWF       _nKeyPressed+0 
L_keypadHandler46:
;alarme.c,306 :: 		if(type == MULT)
	MOVF        keypadHandler_type_L0+0, 0 
	XORLW       3
	BTFSS       STATUS+0, 2 
	GOTO        L_keypadHandler47
;alarme.c,307 :: 		nKeyPressed = "*";
	MOVLW       ?lstr_21_alarme+0
	MOVWF       _nKeyPressed+0 
L_keypadHandler47:
;alarme.c,309 :: 		if(type == DIVI)
	MOVF        keypadHandler_type_L0+0, 0 
	XORLW       4
	BTFSS       STATUS+0, 2 
	GOTO        L_keypadHandler48
;alarme.c,310 :: 		nKeyPressed = "/";
	MOVLW       ?lstr_22_alarme+0
	MOVWF       _nKeyPressed+0 
L_keypadHandler48:
;alarme.c,312 :: 		rightKeysActivation[nKeyPressed] = strcmp(activationCode[nKeyPressed], keyPressed) == 0 ? 1 : 0;
	MOVLW       _rightKeysActivation+0
	MOVWF       FLOC__keypadHandler+0 
	MOVLW       hi_addr(_rightKeysActivation+0)
	MOVWF       FLOC__keypadHandler+1 
	MOVF        _nKeyPressed+0, 0 
	ADDWF       FLOC__keypadHandler+0, 1 
	BTFSC       STATUS+0, 0 
	INCF        FLOC__keypadHandler+1, 1 
	MOVLW       _activationCode+0
	ADDWF       _nKeyPressed+0, 0 
	MOVWF       TBLPTRL 
	MOVLW       hi_addr(_activationCode+0)
	MOVWF       TBLPTRH 
	MOVLW       0
	ADDWFC      TBLPTRH, 1 
	MOVLW       higher_addr(_activationCode+0)
	MOVWF       TBLPTRU 
	MOVLW       0
	ADDWFC      TBLPTRU, 1 
	TBLRD*+
	MOVFF       TABLAT+0, FARG_strcmp_s1+0
	MOVLW       0
	MOVWF       FARG_strcmp_s1+1 
	MOVLW       keypadHandler_keyPressed_L0+0
	MOVWF       FARG_strcmp_s2+0 
	MOVLW       hi_addr(keypadHandler_keyPressed_L0+0)
	MOVWF       FARG_strcmp_s2+1 
	CALL        _strcmp+0, 0
	MOVLW       0
	XORWF       R1, 0 
	BTFSS       STATUS+0, 2 
	GOTO        L__keypadHandler104
	MOVLW       0
	XORWF       R0, 0 
L__keypadHandler104:
	BTFSS       STATUS+0, 2 
	GOTO        L_keypadHandler49
	MOVLW       1
	MOVWF       ?FLOC___keypadHandlerT254+0 
	GOTO        L_keypadHandler50
L_keypadHandler49:
	CLRF        ?FLOC___keypadHandlerT254+0 
L_keypadHandler50:
	MOVFF       FLOC__keypadHandler+0, FSR1
	MOVFF       FLOC__keypadHandler+1, FSR1H
	MOVF        ?FLOC___keypadHandlerT254+0, 0 
	MOVWF       POSTINC1+0 
;alarme.c,313 :: 		rightKeysDeActivation[nKeyPressed] = strcmp(DeActivationCode[nKeyPressed], keyPressed) == 0 ? 1 : 0;
	MOVLW       _rightKeysDeActivation+0
	MOVWF       FLOC__keypadHandler+0 
	MOVLW       hi_addr(_rightKeysDeActivation+0)
	MOVWF       FLOC__keypadHandler+1 
	MOVF        _nKeyPressed+0, 0 
	ADDWF       FLOC__keypadHandler+0, 1 
	BTFSC       STATUS+0, 0 
	INCF        FLOC__keypadHandler+1, 1 
	MOVLW       _deActivationCode+0
	ADDWF       _nKeyPressed+0, 0 
	MOVWF       TBLPTRL 
	MOVLW       hi_addr(_deActivationCode+0)
	MOVWF       TBLPTRH 
	MOVLW       0
	ADDWFC      TBLPTRH, 1 
	MOVLW       higher_addr(_deActivationCode+0)
	MOVWF       TBLPTRU 
	MOVLW       0
	ADDWFC      TBLPTRU, 1 
	TBLRD*+
	MOVFF       TABLAT+0, FARG_strcmp_s1+0
	MOVLW       0
	MOVWF       FARG_strcmp_s1+1 
	MOVLW       keypadHandler_keyPressed_L0+0
	MOVWF       FARG_strcmp_s2+0 
	MOVLW       hi_addr(keypadHandler_keyPressed_L0+0)
	MOVWF       FARG_strcmp_s2+1 
	CALL        _strcmp+0, 0
	MOVLW       0
	XORWF       R1, 0 
	BTFSS       STATUS+0, 2 
	GOTO        L__keypadHandler105
	MOVLW       0
	XORWF       R0, 0 
L__keypadHandler105:
	BTFSS       STATUS+0, 2 
	GOTO        L_keypadHandler51
	MOVLW       1
	MOVWF       ?FLOC___keypadHandlerT264+0 
	GOTO        L_keypadHandler52
L_keypadHandler51:
	CLRF        ?FLOC___keypadHandlerT264+0 
L_keypadHandler52:
	MOVFF       FLOC__keypadHandler+0, FSR1
	MOVFF       FLOC__keypadHandler+1, FSR1H
	MOVF        ?FLOC___keypadHandlerT264+0, 0 
	MOVWF       POSTINC1+0 
;alarme.c,315 :: 		if(nKeyPressed == 6)
	MOVF        _nKeyPressed+0, 0 
	XORLW       6
	BTFSS       STATUS+0, 2 
	GOTO        L_keypadHandler53
;alarme.c,318 :: 		char activationCounter = 0;
	CLRF        keypadHandler_activationCounter_L2+0 
	CLRF        keypadHandler_deActivationCounter_L2+0 
;alarme.c,320 :: 		for(i = 0; i < nKeyPressed; i++)
	CLRF        keypadHandler_i_L2+0 
	CLRF        keypadHandler_i_L2+1 
L_keypadHandler54:
	MOVLW       128
	XORWF       keypadHandler_i_L2+1, 0 
	MOVWF       R0 
	MOVLW       128
	SUBWF       R0, 0 
	BTFSS       STATUS+0, 2 
	GOTO        L__keypadHandler106
	MOVF        _nKeyPressed+0, 0 
	SUBWF       keypadHandler_i_L2+0, 0 
L__keypadHandler106:
	BTFSC       STATUS+0, 0 
	GOTO        L_keypadHandler55
;alarme.c,322 :: 		activationCounter += rightKeysActivation[i];
	MOVLW       _rightKeysActivation+0
	ADDWF       keypadHandler_i_L2+0, 0 
	MOVWF       FSR2 
	MOVLW       hi_addr(_rightKeysActivation+0)
	ADDWFC      keypadHandler_i_L2+1, 0 
	MOVWF       FSR2H 
	MOVF        POSTINC2+0, 0 
	MOVWF       R0 
	MOVF        R0, 0 
	ADDWF       keypadHandler_activationCounter_L2+0, 1 
;alarme.c,323 :: 		deActivationCounter += rightKeysDeActivation[i];
	MOVLW       _rightKeysDeActivation+0
	ADDWF       keypadHandler_i_L2+0, 0 
	MOVWF       FSR2 
	MOVLW       hi_addr(_rightKeysDeActivation+0)
	ADDWFC      keypadHandler_i_L2+1, 0 
	MOVWF       FSR2H 
	MOVF        POSTINC2+0, 0 
	MOVWF       R0 
	MOVF        R0, 0 
	ADDWF       keypadHandler_deActivationCounter_L2+0, 1 
;alarme.c,320 :: 		for(i = 0; i < nKeyPressed; i++)
	INFSNZ      keypadHandler_i_L2+0, 1 
	INCF        keypadHandler_i_L2+1, 1 
;alarme.c,324 :: 		}
	GOTO        L_keypadHandler54
L_keypadHandler55:
;alarme.c,326 :: 		if(activationCounter == 6)
	MOVF        keypadHandler_activationCounter_L2+0, 0 
	XORLW       6
	BTFSS       STATUS+0, 2 
	GOTO        L_keypadHandler57
;alarme.c,328 :: 		isOn = 1;
	MOVLW       1
	MOVWF       _isOn+0 
;alarme.c,329 :: 		}
L_keypadHandler57:
;alarme.c,331 :: 		if(deActivationCounter == 6)
	MOVF        keypadHandler_deActivationCounter_L2+0, 0 
	XORLW       6
	BTFSS       STATUS+0, 2 
	GOTO        L_keypadHandler58
;alarme.c,333 :: 		isOn = 0;
	CLRF        _isOn+0 
;alarme.c,334 :: 		}
L_keypadHandler58:
;alarme.c,335 :: 		}
L_keypadHandler53:
;alarme.c,337 :: 		nKeyPressed = nKeyPressed == 6 ? 0 : nKeyPressed++;
	MOVF        _nKeyPressed+0, 0 
	XORLW       6
	BTFSS       STATUS+0, 2 
	GOTO        L_keypadHandler59
	CLRF        ?FLOC___keypadHandlerT281+0 
	GOTO        L_keypadHandler60
L_keypadHandler59:
	MOVF        _nKeyPressed+0, 0 
	MOVWF       R1 
	MOVF        _nKeyPressed+0, 0 
	ADDLW       1
	MOVWF       R0 
	MOVF        R0, 0 
	MOVWF       _nKeyPressed+0 
	MOVF        R1, 0 
	MOVWF       ?FLOC___keypadHandlerT281+0 
L_keypadHandler60:
	MOVF        ?FLOC___keypadHandlerT281+0, 0 
	MOVWF       _nKeyPressed+0 
;alarme.c,338 :: 		}
L_keypadHandler33:
;alarme.c,339 :: 		}
L_end_keypadHandler:
	RETURN      0
; end of _keypadHandler

_keyHandler:

;alarme.c,342 :: 		int keyHandler (int key, KeyType* type)
;alarme.c,344 :: 		int result = -1;
	MOVLW       255
	MOVWF       keyHandler_result_L0+0 
	MOVLW       255
	MOVWF       keyHandler_result_L0+1 
;alarme.c,345 :: 		switch(key)
	GOTO        L_keyHandler61
;alarme.c,347 :: 		case 231:
L_keyHandler63:
;alarme.c,348 :: 		*type = ON_CLEAR;
	MOVFF       FARG_keyHandler_type+0, FSR1
	MOVFF       FARG_keyHandler_type+1, FSR1H
	MOVLW       5
	MOVWF       POSTINC1+0 
;alarme.c,349 :: 		break;
	GOTO        L_keyHandler62
;alarme.c,351 :: 		case 215:
L_keyHandler64:
;alarme.c,352 :: 		*type = NUM;
	MOVFF       FARG_keyHandler_type+0, FSR1
	MOVFF       FARG_keyHandler_type+1, FSR1H
	MOVLW       6
	MOVWF       POSTINC1+0 
;alarme.c,353 :: 		result = 0;
	CLRF        keyHandler_result_L0+0 
	CLRF        keyHandler_result_L0+1 
;alarme.c,354 :: 		break;
	GOTO        L_keyHandler62
;alarme.c,356 :: 		case 183:
L_keyHandler65:
;alarme.c,357 :: 		*type = EQUALS;
	MOVFF       FARG_keyHandler_type+0, FSR1
	MOVFF       FARG_keyHandler_type+1, FSR1H
	CLRF        POSTINC1+0 
;alarme.c,358 :: 		break;
	GOTO        L_keyHandler62
;alarme.c,360 :: 		case 119:
L_keyHandler66:
;alarme.c,361 :: 		*type = SUM;
	MOVFF       FARG_keyHandler_type+0, FSR1
	MOVFF       FARG_keyHandler_type+1, FSR1H
	MOVLW       1
	MOVWF       POSTINC1+0 
;alarme.c,362 :: 		break;
	GOTO        L_keyHandler62
;alarme.c,364 :: 		case 235:
L_keyHandler67:
;alarme.c,365 :: 		*type = NUM;
	MOVFF       FARG_keyHandler_type+0, FSR1
	MOVFF       FARG_keyHandler_type+1, FSR1H
	MOVLW       6
	MOVWF       POSTINC1+0 
;alarme.c,366 :: 		result = 7;
	MOVLW       7
	MOVWF       keyHandler_result_L0+0 
	MOVLW       0
	MOVWF       keyHandler_result_L0+1 
;alarme.c,367 :: 		break;
	GOTO        L_keyHandler62
;alarme.c,369 :: 		case 219:
L_keyHandler68:
;alarme.c,370 :: 		*type = NUM;
	MOVFF       FARG_keyHandler_type+0, FSR1
	MOVFF       FARG_keyHandler_type+1, FSR1H
	MOVLW       6
	MOVWF       POSTINC1+0 
;alarme.c,371 :: 		result = 8;
	MOVLW       8
	MOVWF       keyHandler_result_L0+0 
	MOVLW       0
	MOVWF       keyHandler_result_L0+1 
;alarme.c,372 :: 		break;
	GOTO        L_keyHandler62
;alarme.c,374 :: 		case 187:
L_keyHandler69:
;alarme.c,375 :: 		*type = NUM;
	MOVFF       FARG_keyHandler_type+0, FSR1
	MOVFF       FARG_keyHandler_type+1, FSR1H
	MOVLW       6
	MOVWF       POSTINC1+0 
;alarme.c,376 :: 		result = 9;
	MOVLW       9
	MOVWF       keyHandler_result_L0+0 
	MOVLW       0
	MOVWF       keyHandler_result_L0+1 
;alarme.c,377 :: 		break;
	GOTO        L_keyHandler62
;alarme.c,379 :: 		case 123:
L_keyHandler70:
;alarme.c,380 :: 		*type = SUB;
	MOVFF       FARG_keyHandler_type+0, FSR1
	MOVFF       FARG_keyHandler_type+1, FSR1H
	MOVLW       2
	MOVWF       POSTINC1+0 
;alarme.c,381 :: 		break;
	GOTO        L_keyHandler62
;alarme.c,383 :: 		case 237:
L_keyHandler71:
;alarme.c,384 :: 		*type = NUM;
	MOVFF       FARG_keyHandler_type+0, FSR1
	MOVFF       FARG_keyHandler_type+1, FSR1H
	MOVLW       6
	MOVWF       POSTINC1+0 
;alarme.c,385 :: 		result = 4;
	MOVLW       4
	MOVWF       keyHandler_result_L0+0 
	MOVLW       0
	MOVWF       keyHandler_result_L0+1 
;alarme.c,386 :: 		break;
	GOTO        L_keyHandler62
;alarme.c,388 :: 		case 221:
L_keyHandler72:
;alarme.c,389 :: 		*type = NUM;
	MOVFF       FARG_keyHandler_type+0, FSR1
	MOVFF       FARG_keyHandler_type+1, FSR1H
	MOVLW       6
	MOVWF       POSTINC1+0 
;alarme.c,390 :: 		result = 5;
	MOVLW       5
	MOVWF       keyHandler_result_L0+0 
	MOVLW       0
	MOVWF       keyHandler_result_L0+1 
;alarme.c,391 :: 		break;
	GOTO        L_keyHandler62
;alarme.c,393 :: 		case 189:
L_keyHandler73:
;alarme.c,394 :: 		*type = NUM;
	MOVFF       FARG_keyHandler_type+0, FSR1
	MOVFF       FARG_keyHandler_type+1, FSR1H
	MOVLW       6
	MOVWF       POSTINC1+0 
;alarme.c,395 :: 		result = 6;
	MOVLW       6
	MOVWF       keyHandler_result_L0+0 
	MOVLW       0
	MOVWF       keyHandler_result_L0+1 
;alarme.c,396 :: 		break;
	GOTO        L_keyHandler62
;alarme.c,398 :: 		case 125:
L_keyHandler74:
;alarme.c,399 :: 		*type = MULT;
	MOVFF       FARG_keyHandler_type+0, FSR1
	MOVFF       FARG_keyHandler_type+1, FSR1H
	MOVLW       3
	MOVWF       POSTINC1+0 
;alarme.c,400 :: 		break;
	GOTO        L_keyHandler62
;alarme.c,402 :: 		case 238:
L_keyHandler75:
;alarme.c,403 :: 		*type = NUM;
	MOVFF       FARG_keyHandler_type+0, FSR1
	MOVFF       FARG_keyHandler_type+1, FSR1H
	MOVLW       6
	MOVWF       POSTINC1+0 
;alarme.c,404 :: 		result = 1;
	MOVLW       1
	MOVWF       keyHandler_result_L0+0 
	MOVLW       0
	MOVWF       keyHandler_result_L0+1 
;alarme.c,405 :: 		break;
	GOTO        L_keyHandler62
;alarme.c,407 :: 		case 222:
L_keyHandler76:
;alarme.c,408 :: 		*type = NUM;
	MOVFF       FARG_keyHandler_type+0, FSR1
	MOVFF       FARG_keyHandler_type+1, FSR1H
	MOVLW       6
	MOVWF       POSTINC1+0 
;alarme.c,409 :: 		result = 2;
	MOVLW       2
	MOVWF       keyHandler_result_L0+0 
	MOVLW       0
	MOVWF       keyHandler_result_L0+1 
;alarme.c,410 :: 		break;
	GOTO        L_keyHandler62
;alarme.c,412 :: 		case 190:
L_keyHandler77:
;alarme.c,413 :: 		*type = NUM;
	MOVFF       FARG_keyHandler_type+0, FSR1
	MOVFF       FARG_keyHandler_type+1, FSR1H
	MOVLW       6
	MOVWF       POSTINC1+0 
;alarme.c,414 :: 		result = 3;
	MOVLW       3
	MOVWF       keyHandler_result_L0+0 
	MOVLW       0
	MOVWF       keyHandler_result_L0+1 
;alarme.c,415 :: 		break;
	GOTO        L_keyHandler62
;alarme.c,417 :: 		case 126:
L_keyHandler78:
;alarme.c,418 :: 		*type = DIVI;
	MOVFF       FARG_keyHandler_type+0, FSR1
	MOVFF       FARG_keyHandler_type+1, FSR1H
	MOVLW       4
	MOVWF       POSTINC1+0 
;alarme.c,419 :: 		break;
	GOTO        L_keyHandler62
;alarme.c,420 :: 		}
L_keyHandler61:
	MOVLW       0
	XORWF       FARG_keyHandler_key+1, 0 
	BTFSS       STATUS+0, 2 
	GOTO        L__keyHandler108
	MOVLW       231
	XORWF       FARG_keyHandler_key+0, 0 
L__keyHandler108:
	BTFSC       STATUS+0, 2 
	GOTO        L_keyHandler63
	MOVLW       0
	XORWF       FARG_keyHandler_key+1, 0 
	BTFSS       STATUS+0, 2 
	GOTO        L__keyHandler109
	MOVLW       215
	XORWF       FARG_keyHandler_key+0, 0 
L__keyHandler109:
	BTFSC       STATUS+0, 2 
	GOTO        L_keyHandler64
	MOVLW       0
	XORWF       FARG_keyHandler_key+1, 0 
	BTFSS       STATUS+0, 2 
	GOTO        L__keyHandler110
	MOVLW       183
	XORWF       FARG_keyHandler_key+0, 0 
L__keyHandler110:
	BTFSC       STATUS+0, 2 
	GOTO        L_keyHandler65
	MOVLW       0
	XORWF       FARG_keyHandler_key+1, 0 
	BTFSS       STATUS+0, 2 
	GOTO        L__keyHandler111
	MOVLW       119
	XORWF       FARG_keyHandler_key+0, 0 
L__keyHandler111:
	BTFSC       STATUS+0, 2 
	GOTO        L_keyHandler66
	MOVLW       0
	XORWF       FARG_keyHandler_key+1, 0 
	BTFSS       STATUS+0, 2 
	GOTO        L__keyHandler112
	MOVLW       235
	XORWF       FARG_keyHandler_key+0, 0 
L__keyHandler112:
	BTFSC       STATUS+0, 2 
	GOTO        L_keyHandler67
	MOVLW       0
	XORWF       FARG_keyHandler_key+1, 0 
	BTFSS       STATUS+0, 2 
	GOTO        L__keyHandler113
	MOVLW       219
	XORWF       FARG_keyHandler_key+0, 0 
L__keyHandler113:
	BTFSC       STATUS+0, 2 
	GOTO        L_keyHandler68
	MOVLW       0
	XORWF       FARG_keyHandler_key+1, 0 
	BTFSS       STATUS+0, 2 
	GOTO        L__keyHandler114
	MOVLW       187
	XORWF       FARG_keyHandler_key+0, 0 
L__keyHandler114:
	BTFSC       STATUS+0, 2 
	GOTO        L_keyHandler69
	MOVLW       0
	XORWF       FARG_keyHandler_key+1, 0 
	BTFSS       STATUS+0, 2 
	GOTO        L__keyHandler115
	MOVLW       123
	XORWF       FARG_keyHandler_key+0, 0 
L__keyHandler115:
	BTFSC       STATUS+0, 2 
	GOTO        L_keyHandler70
	MOVLW       0
	XORWF       FARG_keyHandler_key+1, 0 
	BTFSS       STATUS+0, 2 
	GOTO        L__keyHandler116
	MOVLW       237
	XORWF       FARG_keyHandler_key+0, 0 
L__keyHandler116:
	BTFSC       STATUS+0, 2 
	GOTO        L_keyHandler71
	MOVLW       0
	XORWF       FARG_keyHandler_key+1, 0 
	BTFSS       STATUS+0, 2 
	GOTO        L__keyHandler117
	MOVLW       221
	XORWF       FARG_keyHandler_key+0, 0 
L__keyHandler117:
	BTFSC       STATUS+0, 2 
	GOTO        L_keyHandler72
	MOVLW       0
	XORWF       FARG_keyHandler_key+1, 0 
	BTFSS       STATUS+0, 2 
	GOTO        L__keyHandler118
	MOVLW       189
	XORWF       FARG_keyHandler_key+0, 0 
L__keyHandler118:
	BTFSC       STATUS+0, 2 
	GOTO        L_keyHandler73
	MOVLW       0
	XORWF       FARG_keyHandler_key+1, 0 
	BTFSS       STATUS+0, 2 
	GOTO        L__keyHandler119
	MOVLW       125
	XORWF       FARG_keyHandler_key+0, 0 
L__keyHandler119:
	BTFSC       STATUS+0, 2 
	GOTO        L_keyHandler74
	MOVLW       0
	XORWF       FARG_keyHandler_key+1, 0 
	BTFSS       STATUS+0, 2 
	GOTO        L__keyHandler120
	MOVLW       238
	XORWF       FARG_keyHandler_key+0, 0 
L__keyHandler120:
	BTFSC       STATUS+0, 2 
	GOTO        L_keyHandler75
	MOVLW       0
	XORWF       FARG_keyHandler_key+1, 0 
	BTFSS       STATUS+0, 2 
	GOTO        L__keyHandler121
	MOVLW       222
	XORWF       FARG_keyHandler_key+0, 0 
L__keyHandler121:
	BTFSC       STATUS+0, 2 
	GOTO        L_keyHandler76
	MOVLW       0
	XORWF       FARG_keyHandler_key+1, 0 
	BTFSS       STATUS+0, 2 
	GOTO        L__keyHandler122
	MOVLW       190
	XORWF       FARG_keyHandler_key+0, 0 
L__keyHandler122:
	BTFSC       STATUS+0, 2 
	GOTO        L_keyHandler77
	MOVLW       0
	XORWF       FARG_keyHandler_key+1, 0 
	BTFSS       STATUS+0, 2 
	GOTO        L__keyHandler123
	MOVLW       126
	XORWF       FARG_keyHandler_key+0, 0 
L__keyHandler123:
	BTFSC       STATUS+0, 2 
	GOTO        L_keyHandler78
L_keyHandler62:
;alarme.c,422 :: 		return result;
	MOVF        keyHandler_result_L0+0, 0 
	MOVWF       R0 
	MOVF        keyHandler_result_L0+1, 0 
	MOVWF       R1 
;alarme.c,423 :: 		}
L_end_keyHandler:
	RETURN      0
; end of _keyHandler
